target datalayout = "e-m:e-p270:32:32-p271:32:32-p272:64:64-i64:64-i128:128-f80:128-n8:16:32:64-S128"
target triple = "x86_64-pc-linux-gnu"

%struct._typeobject = type { %struct.PyVarObject, ptr, i64, i64, ptr, i64, ptr, ptr, ptr, ptr, ptr, ptr, ptr, ptr, ptr, ptr, ptr, ptr, ptr, i64, ptr, ptr, ptr, ptr, i64, ptr, ptr, ptr, ptr, ptr, ptr, ptr, ptr, ptr, i64, ptr, ptr, ptr, ptr, ptr, ptr, ptr, ptr, ptr, ptr, ptr, i32, ptr, ptr, i8, i16 }
%struct.PyVarObject = type { %struct._object, i64 }
%struct._object = type { %union.anon, ptr }
%union.anon = type { i64 }
%struct._longobject = type { %struct._object, %struct._PyLongValue }
%struct._PyLongValue = type { i64, [1 x i32] }
%struct.Py_complex = type { double, double }
%struct.PyComplexObject = type { %struct._object, %struct.Py_complex }
%struct.anon = type { i32, i32 }

@_Py_NotImplementedStruct = external global %struct._object, align 8
@PyFloat_Type = external global %struct._typeobject, align 8
@_Py_TrueStruct = external global %struct._longobject, align 8
@_Py_FalseStruct = external global %struct._longobject, align 8

; Function Attrs: alwaysinline nounwind uwtable
define internal void @Py_INCREF(ptr noundef %0) #8 {
  %2 = alloca ptr, align 8
  %3 = alloca i32, align 4
  %4 = alloca i32, align 4
  store ptr %0, ptr %2, align 8, !tbaa !16
  call void @llvm.lifetime.start.p0(i64 4, ptr %3) #9
  %5 = load ptr, ptr %2, align 8, !tbaa !16
  %6 = getelementptr inbounds nuw %struct._object, ptr %5, i32 0, i32 0
  %7 = getelementptr inbounds nuw %struct.anon, ptr %6, i32 0, i32 0
  %8 = load i32, ptr %7, align 8, !tbaa !32
  store i32 %8, ptr %3, align 4, !tbaa !12
  %9 = load i32, ptr %3, align 4, !tbaa !12
  %10 = icmp slt i32 %9, 0
  br i1 %10, label %11, label %12

11:                                               ; preds = %1
  store i32 1, ptr %4, align 4
  br label %18

12:                                               ; preds = %1
  %13 = load i32, ptr %3, align 4, !tbaa !12
  %14 = add i32 %13, 1
  %15 = load ptr, ptr %2, align 8, !tbaa !16
  %16 = getelementptr inbounds nuw %struct._object, ptr %15, i32 0, i32 0
  %17 = getelementptr inbounds nuw %struct.anon, ptr %16, i32 0, i32 0
  store i32 %14, ptr %17, align 8, !tbaa !32
  store i32 0, ptr %4, align 4
  br label %18

18:                                               ; preds = %12, %11
  call void @llvm.lifetime.end.p0(i64 4, ptr %3) #9
  %19 = load i32, ptr %4, align 4
  switch i32 %19, label %21 [
    i32 0, label %20
    i32 1, label %20
  ]

20:                                               ; preds = %18, %18
  ret void

21:                                               ; preds = %18
  unreachable
}

; Function Attrs: alwaysinline nounwind uwtable
define internal i32 @_Py_IsImmortal(ptr noundef %0) #8 {
  %2 = alloca ptr, align 8
  store ptr %0, ptr %2, align 8, !tbaa !16
  %3 = load ptr, ptr %2, align 8, !tbaa !16
  %4 = getelementptr inbounds nuw %struct._object, ptr %3, i32 0, i32 0
  %5 = getelementptr inbounds nuw %struct.anon, ptr %4, i32 0, i32 0
  %6 = load i32, ptr %5, align 8, !tbaa !32
  %7 = icmp slt i32 %6, 0
  %8 = zext i1 %7 to i32
  ret i32 %8
}

; Function Attrs: inlinehint nounwind uwtable
define internal i32 @Py_IS_TYPE(ptr noundef %0, ptr noundef %1) #6 {
  %3 = alloca ptr, align 8
  %4 = alloca ptr, align 8
  store ptr %0, ptr %3, align 8, !tbaa !16
  store ptr %1, ptr %4, align 8, !tbaa !18
  %5 = load ptr, ptr %3, align 8, !tbaa !16
  %6 = call ptr @_Py_TYPE(ptr noundef %5)
  %7 = load ptr, ptr %4, align 8, !tbaa !18
  %8 = icmp eq ptr %6, %7
  %9 = zext i1 %8 to i32
  ret i32 %9
}

; Function Attrs: inlinehint nounwind uwtable
define internal ptr @_Py_NewRef(ptr noundef %0) #6 {
  %2 = alloca ptr, align 8
  store ptr %0, ptr %2, align 8, !tbaa !16
  %3 = load ptr, ptr %2, align 8, !tbaa !16
  call void @Py_INCREF(ptr noundef %3)
  %4 = load ptr, ptr %2, align 8, !tbaa !16
  ret ptr %4
}

; Function Attrs: alwaysinline nounwind uwtable
define internal void @Py_DECREF(ptr noundef %0) #8 {
  %2 = alloca ptr, align 8
  store ptr %0, ptr %2, align 8, !tbaa !16
  %3 = load ptr, ptr %2, align 8, !tbaa !16
  %4 = call i32 @_Py_IsImmortal(ptr noundef %3)
  %5 = icmp ne i32 %4, 0
  br i1 %5, label %6, label %7

6:                                                ; preds = %1
  br label %16

7:                                                ; preds = %1
  %8 = load ptr, ptr %2, align 8, !tbaa !16
  %9 = getelementptr inbounds nuw %struct._object, ptr %8, i32 0, i32 0
  %10 = getelementptr inbounds nuw %struct.anon, ptr %9, i32 0, i32 0
  %11 = load i32, ptr %10, align 8, !tbaa !32
  %12 = add i32 %11, -1
  store i32 %12, ptr %10, align 8, !tbaa !32
  %13 = icmp eq i32 %12, 0
  br i1 %13, label %14, label %16

14:                                               ; preds = %7
  %15 = load ptr, ptr %2, align 8, !tbaa !16
  call void @_Py_Dealloc(ptr noundef %15)
  br label %16

16:                                               ; preds = %6, %14, %7
  ret void
}

; Function Attrs: inlinehint nounwind uwtable
define internal i32 @PyType_HasFeature(ptr noundef %0, i64 noundef %1) #6 {
  %3 = alloca ptr, align 8
  %4 = alloca i64, align 8
  %5 = alloca i64, align 8
  store ptr %0, ptr %3, align 8, !tbaa !18
  store i64 %1, ptr %4, align 8, !tbaa !35
  call void @llvm.lifetime.start.p0(i64 8, ptr %5) #9
  %6 = load ptr, ptr %3, align 8, !tbaa !18
  %7 = getelementptr inbounds nuw %struct._typeobject, ptr %6, i32 0, i32 19
  %8 = load i64, ptr %7, align 8, !tbaa !46
  store i64 %8, ptr %5, align 8, !tbaa !35
  %9 = load i64, ptr %5, align 8, !tbaa !35
  %10 = load i64, ptr %4, align 8, !tbaa !35
  %11 = and i64 %9, %10
  %12 = icmp ne i64 %11, 0
  %13 = zext i1 %12 to i32
  call void @llvm.lifetime.end.p0(i64 8, ptr %5) #9
  ret i32 %13
}

; Function Attrs: inlinehint nounwind uwtable
define internal ptr @_Py_TYPE(ptr noundef %0) #6 {
  %2 = alloca ptr, align 8
  store ptr %0, ptr %2, align 8, !tbaa !16
  %3 = load ptr, ptr %2, align 8, !tbaa !16
  %4 = getelementptr inbounds nuw %struct._object, ptr %3, i32 0, i32 1
  %5 = load ptr, ptr %4, align 8, !tbaa !40
  ret ptr %5
}

; Function Attrs: inlinehint nounwind uwtable
define internal i32 @PyObject_TypeCheck(ptr noundef %0, ptr noundef %1) #6 {
  %3 = alloca ptr, align 8
  %4 = alloca ptr, align 8
  store ptr %0, ptr %3, align 8, !tbaa !16
  store ptr %1, ptr %4, align 8, !tbaa !18
  %5 = load ptr, ptr %3, align 8, !tbaa !16
  %6 = load ptr, ptr %4, align 8, !tbaa !18
  %7 = call i32 @Py_IS_TYPE(ptr noundef %5, ptr noundef %6)
  %8 = icmp ne i32 %7, 0
  br i1 %8, label %15, label %9

9:                                                ; preds = %2
  %10 = load ptr, ptr %3, align 8, !tbaa !16
  %11 = call ptr @_Py_TYPE(ptr noundef %10)
  %12 = load ptr, ptr %4, align 8, !tbaa !18
  %13 = call i32 @PyType_IsSubtype(ptr noundef %11, ptr noundef %12)
  %14 = icmp ne i32 %13, 0
  br label %15

15:                                               ; preds = %9, %2
  %16 = phi i1 [ true, %2 ], [ %14, %9 ]
  %17 = zext i1 %16 to i32
  ret i32 %17
}

; Function Attrs: nounwind uwtable
define internal ptr @complex_richcompare(ptr noundef %0, ptr noundef %1, i32 noundef %2) #0 {
  %4 = alloca ptr, align 8
  %5 = alloca ptr, align 8
  %6 = alloca ptr, align 8
  %7 = alloca i32, align 4
  %8 = alloca ptr, align 8
  %9 = alloca %struct.Py_complex, align 8
  %10 = alloca i32, align 4
  %11 = alloca i32, align 4
  %12 = alloca ptr, align 8
  %13 = alloca ptr, align 8
  %14 = alloca %struct.Py_complex, align 8
  store ptr %0, ptr %5, align 8, !tbaa !16
  store ptr %1, ptr %6, align 8, !tbaa !16
  store i32 %2, ptr %7, align 4, !tbaa !12
  call void @llvm.lifetime.start.p0(i64 8, ptr %8) #9
  call void @llvm.lifetime.start.p0(i64 16, ptr %9) #9
  call void @llvm.lifetime.start.p0(i64 4, ptr %10) #9
  %15 = load i32, ptr %7, align 4, !tbaa !12
  %16 = icmp ne i32 %15, 2
  br i1 %16, label %17, label %21

17:                                               ; preds = %3
  %18 = load i32, ptr %7, align 4, !tbaa !12
  %19 = icmp ne i32 %18, 3
  br i1 %19, label %20, label %21

20:                                               ; preds = %17
  br label %126

21:                                               ; preds = %17, %3
  %22 = load ptr, ptr %5, align 8, !tbaa !16
  %23 = call i32 @PyObject_TypeCheck(ptr noundef %22, ptr noundef @PyComplex_Type)
  %24 = icmp ne i32 %23, 0
  br i1 %24, label %25, label %28

25:                                               ; preds = %21
  %26 = load ptr, ptr %5, align 8, !tbaa !16
  %27 = getelementptr inbounds nuw %struct.PyComplexObject, ptr %26, i32 0, i32 1
  call void @llvm.memcpy.p0.p0.i64(ptr align 8 %9, ptr align 8 %27, i64 16, i1 false), !tbaa.struct !11
  br label %34

28:                                               ; preds = %21
  %29 = call i32 @real_to_complex(ptr noundef %5, ptr noundef %9)
  %30 = icmp slt i32 %29, 0
  br i1 %30, label %31, label %33

31:                                               ; preds = %28
  %32 = load ptr, ptr %5, align 8, !tbaa !16
  store ptr %32, ptr %4, align 8
  store i32 1, ptr %11, align 4
  br label %127

33:                                               ; preds = %28
  br label %34

34:                                               ; preds = %33, %25
  %35 = load ptr, ptr %6, align 8, !tbaa !16
  %36 = call ptr @_Py_TYPE(ptr noundef %35)
  %37 = call i32 @PyType_HasFeature(ptr noundef %36, i64 noundef 16777216)
  %38 = icmp ne i32 %37, 0
  br i1 %38, label %39, label %60

39:                                               ; preds = %34
  %40 = getelementptr inbounds nuw %struct.Py_complex, ptr %9, i32 0, i32 1
  %41 = load double, ptr %40, align 8, !tbaa !9
  %42 = fcmp oeq double %41, 0.000000e+00
  br i1 %42, label %43, label %58

43:                                               ; preds = %39
  call void @llvm.lifetime.start.p0(i64 8, ptr %12) #9
  call void @llvm.lifetime.start.p0(i64 8, ptr %13) #9
  %44 = getelementptr inbounds nuw %struct.Py_complex, ptr %9, i32 0, i32 0
  %45 = load double, ptr %44, align 8, !tbaa !4
  %46 = call ptr @PyFloat_FromDouble(double noundef %45)
  store ptr %46, ptr %12, align 8, !tbaa !16
  %47 = load ptr, ptr %12, align 8, !tbaa !16
  %48 = icmp eq ptr %47, null
  br i1 %48, label %49, label %50

49:                                               ; preds = %43
  store ptr null, ptr %4, align 8
  store i32 1, ptr %11, align 4
  br label %57

50:                                               ; preds = %43
  %51 = load ptr, ptr %12, align 8, !tbaa !16
  %52 = load ptr, ptr %6, align 8, !tbaa !16
  %53 = load i32, ptr %7, align 4, !tbaa !12
  %54 = call ptr @PyObject_RichCompare(ptr noundef %51, ptr noundef %52, i32 noundef %53)
  store ptr %54, ptr %13, align 8, !tbaa !16
  %55 = load ptr, ptr %12, align 8, !tbaa !16
  call void @Py_DECREF(ptr noundef %55)
  %56 = load ptr, ptr %13, align 8, !tbaa !16
  store ptr %56, ptr %4, align 8
  store i32 1, ptr %11, align 4
  br label %57

57:                                               ; preds = %50, %49
  call void @llvm.lifetime.end.p0(i64 8, ptr %13) #9
  call void @llvm.lifetime.end.p0(i64 8, ptr %12) #9
  br label %127

58:                                               ; preds = %39
  store i32 0, ptr %10, align 4, !tbaa !12
  br label %59

59:                                               ; preds = %58
  br label %115

60:                                               ; preds = %34
  %61 = load ptr, ptr %6, align 8, !tbaa !16
  %62 = call i32 @PyObject_TypeCheck(ptr noundef %61, ptr noundef @PyFloat_Type)
  %63 = icmp ne i32 %62, 0
  br i1 %63, label %64, label %77

64:                                               ; preds = %60
  %65 = getelementptr inbounds nuw %struct.Py_complex, ptr %9, i32 0, i32 0
  %66 = load double, ptr %65, align 8, !tbaa !4
  %67 = load ptr, ptr %6, align 8, !tbaa !16
  %68 = call double @PyFloat_AsDouble(ptr noundef %67)
  %69 = fcmp oeq double %66, %68
  br i1 %69, label %70, label %74

70:                                               ; preds = %64
  %71 = getelementptr inbounds nuw %struct.Py_complex, ptr %9, i32 0, i32 1
  %72 = load double, ptr %71, align 8, !tbaa !9
  %73 = fcmp oeq double %72, 0.000000e+00
  br label %74

74:                                               ; preds = %70, %64
  %75 = phi i1 [ false, %64 ], [ %73, %70 ]
  %76 = zext i1 %75 to i32
  store i32 %76, ptr %10, align 4, !tbaa !12
  br label %114

77:                                               ; preds = %60
  %78 = load ptr, ptr %6, align 8, !tbaa !16
  %79 = call i32 @PyObject_TypeCheck(ptr noundef %78, ptr noundef @PyComplex_Type)
  %80 = icmp ne i32 %79, 0
  br i1 %80, label %81, label %112

81:                                               ; preds = %77
  call void @llvm.lifetime.start.p0(i64 16, ptr %14) #9
  %82 = load ptr, ptr %6, align 8, !tbaa !16
  %83 = call i32 @PyObject_TypeCheck(ptr noundef %82, ptr noundef @PyComplex_Type)
  %84 = icmp ne i32 %83, 0
  br i1 %84, label %85, label %88

85:                                               ; preds = %81
  %86 = load ptr, ptr %6, align 8, !tbaa !16
  %87 = getelementptr inbounds nuw %struct.PyComplexObject, ptr %86, i32 0, i32 1
  call void @llvm.memcpy.p0.p0.i64(ptr align 8 %14, ptr align 8 %87, i64 16, i1 false), !tbaa.struct !11
  br label %94

88:                                               ; preds = %81
  %89 = call i32 @real_to_complex(ptr noundef %6, ptr noundef %14)
  %90 = icmp slt i32 %89, 0
  br i1 %90, label %91, label %93

91:                                               ; preds = %88
  %92 = load ptr, ptr %6, align 8, !tbaa !16
  store ptr %92, ptr %4, align 8
  store i32 1, ptr %11, align 4
  br label %109

93:                                               ; preds = %88
  br label %94

94:                                               ; preds = %93, %85
  %95 = getelementptr inbounds nuw %struct.Py_complex, ptr %9, i32 0, i32 0
  %96 = load double, ptr %95, align 8, !tbaa !4
  %97 = getelementptr inbounds nuw %struct.Py_complex, ptr %14, i32 0, i32 0
  %98 = load double, ptr %97, align 8, !tbaa !4
  %99 = fcmp oeq double %96, %98
  br i1 %99, label %100, label %106

100:                                              ; preds = %94
  %101 = getelementptr inbounds nuw %struct.Py_complex, ptr %9, i32 0, i32 1
  %102 = load double, ptr %101, align 8, !tbaa !9
  %103 = getelementptr inbounds nuw %struct.Py_complex, ptr %14, i32 0, i32 1
  %104 = load double, ptr %103, align 8, !tbaa !9
  %105 = fcmp oeq double %102, %104
  br label %106

106:                                              ; preds = %100, %94
  %107 = phi i1 [ false, %94 ], [ %105, %100 ]
  %108 = zext i1 %107 to i32
  store i32 %108, ptr %10, align 4, !tbaa !12
  store i32 0, ptr %11, align 4
  br label %109

109:                                              ; preds = %106, %91
  call void @llvm.lifetime.end.p0(i64 16, ptr %14) #9
  %110 = load i32, ptr %11, align 4
  switch i32 %110, label %127 [
    i32 0, label %111
  ]

111:                                              ; preds = %109
  br label %113

112:                                              ; preds = %77
  br label %126

113:                                              ; preds = %111
  br label %114

114:                                              ; preds = %113, %74
  br label %115

115:                                              ; preds = %114, %59
  %116 = load i32, ptr %10, align 4, !tbaa !12
  %117 = load i32, ptr %7, align 4, !tbaa !12
  %118 = icmp eq i32 %117, 2
  %119 = zext i1 %118 to i32
  %120 = icmp eq i32 %116, %119
  br i1 %120, label %121, label %122

121:                                              ; preds = %115
  store ptr @_Py_TrueStruct, ptr %8, align 8, !tbaa !16
  br label %123

122:                                              ; preds = %115
  store ptr @_Py_FalseStruct, ptr %8, align 8, !tbaa !16
  br label %123

123:                                              ; preds = %122, %121
  %124 = load ptr, ptr %8, align 8, !tbaa !16
  %125 = call ptr @_Py_NewRef(ptr noundef %124)
  store ptr %125, ptr %4, align 8
  store i32 1, ptr %11, align 4
  br label %127

126:                                              ; preds = %112, %20
  store ptr @_Py_NotImplementedStruct, ptr %4, align 8
  store i32 1, ptr %11, align 4
  br label %127

127:                                              ; preds = %126, %123, %109, %57, %31
  call void @llvm.lifetime.end.p0(i64 4, ptr %10) #9
  call void @llvm.lifetime.end.p0(i64 16, ptr %9) #9
  call void @llvm.lifetime.end.p0(i64 8, ptr %8) #9
  %128 = load ptr, ptr %4, align 8
  ret ptr %128
}