; Function Attrs: nounwind uwtable
define internal ptr @complex_richcompare(ptr noundef %0, ptr noundef %1, i32 noundef %2) #9 {
  %4 = alloca ptr, align 8
  %5 = alloca ptr, align 8
  %6 = alloca %struct.Py_complex, align 8
  %7 = alloca %struct.Py_complex, align 8
  store ptr %0, ptr %4, align 8, !tbaa !32
  store ptr %1, ptr %5, align 8, !tbaa !32
  call void @llvm.lifetime.start.p0(i64 16, ptr nonnull %6) #16
  %8 = add i32 %2, -4
  %or.cond = icmp ult i32 %8, -2
  br i1 %or.cond, label %Py_DECREF.exit, label %9

9:                                                ; preds = %3
  %10 = getelementptr i8, ptr %0, i64 8
  %.val27 = load ptr, ptr %10, align 8, !tbaa !8
  %.not.i28 = icmp eq ptr %.val27, @PyComplex_Type
  br i1 %.not.i28, label %PyObject_TypeCheck.exit.thread, label %PyObject_TypeCheck.exit

PyObject_TypeCheck.exit:                          ; preds = %9
  %11 = tail call i32 @PyType_IsSubtype(ptr noundef %.val27, ptr noundef nonnull @PyComplex_Type) #16
  %.not44 = icmp eq i32 %11, 0
  br i1 %.not44, label %13, label %PyObject_TypeCheck.exit.thread

PyObject_TypeCheck.exit.thread:                   ; preds = %9, %PyObject_TypeCheck.exit
  %12 = getelementptr inbounds nuw i8, ptr %0, i64 16
  call void @llvm.memcpy.p0.p0.i64(ptr noundef nonnull align 8 dereferenceable(16) %6, ptr noundef nonnull align 8 dereferenceable(16) %12, i64 16, i1 false), !tbaa.struct !34
  br label %real_to_complex.exit

13:                                               ; preds = %PyObject_TypeCheck.exit
  %14 = getelementptr inbounds nuw i8, ptr %6, i64 8
  store double 0.000000e+00, ptr %14, align 8, !tbaa !35
  %.val.i.i = load ptr, ptr %10, align 8, !tbaa !8
  %.not.i.i.i = icmp eq ptr %.val.i.i, @PyFloat_Type
  br i1 %.not.i.i.i, label %PyObject_TypeCheck.exit.thread.i.i, label %PyObject_TypeCheck.exit.i.i

PyObject_TypeCheck.exit.i.i:                      ; preds = %13
  %15 = tail call i32 @PyType_IsSubtype(ptr noundef %.val.i.i, ptr noundef nonnull @PyFloat_Type) #16
  %.not8.i.i = icmp eq i32 %15, 0
  br i1 %.not8.i.i, label %17, label %PyObject_TypeCheck.exit.thread.i.i

PyObject_TypeCheck.exit.thread.i.i:               ; preds = %PyObject_TypeCheck.exit.i.i, %13
  %16 = getelementptr i8, ptr %0, i64 16
  %.val6.i.i = load double, ptr %16, align 8, !tbaa !36
  store double %.val6.i.i, ptr %6, align 8, !tbaa !13
  br label %real_to_complex.exit

17:                                               ; preds = %PyObject_TypeCheck.exit.i.i
  %18 = call i32 @_Py_convert_int_to_double(ptr noundef nonnull %4, ptr noundef nonnull %6) #16
  %19 = icmp slt i32 %18, 0
  br i1 %19, label %20, label %real_to_complex.exit

20:                                               ; preds = %17
  %21 = load ptr, ptr %4, align 8, !tbaa !32
  br label %Py_DECREF.exit

real_to_complex.exit:                             ; preds = %17, %PyObject_TypeCheck.exit.thread.i.i, %PyObject_TypeCheck.exit.thread
  %22 = getelementptr i8, ptr %1, i64 8
  %.val = load ptr, ptr %22, align 8, !tbaa !8
  %23 = getelementptr i8, ptr %.val, i64 168
  %.val23 = load i64, ptr %23, align 8, !tbaa !20
  %24 = and i64 %.val23, 16777216
  %.not19 = icmp eq i64 %24, 0
  br i1 %.not19, label %40, label %25

25:                                               ; preds = %real_to_complex.exit
  %26 = getelementptr inbounds nuw i8, ptr %6, i64 8
  %27 = load double, ptr %26, align 8, !tbaa !35
  %28 = fcmp oeq double %27, 0.000000e+00
  br i1 %28, label %29, label %._crit_edge

._crit_edge:                                      ; preds = %25
  %.not50 = icmp eq i32 %2, 2
  br i1 %.not50, label %.split, label %.split17

29:                                               ; preds = %25
  %30 = load double, ptr %6, align 8, !tbaa !38
  %31 = call ptr @PyFloat_FromDouble(double noundef %30) #16
  %32 = icmp eq ptr %31, null
  br i1 %32, label %Py_DECREF.exit, label %33

33:                                               ; preds = %29
  %34 = call ptr @PyObject_RichCompare(ptr noundef nonnull %31, ptr noundef nonnull %1, i32 noundef %2) #16
  %35 = load i32, ptr %31, align 8, !tbaa !12
  %.not.i = icmp sgt i32 %35, -1
  br i1 %.not.i, label %36, label %Py_DECREF.exit

36:                                               ; preds = %33
  %37 = add nsw i32 %35, -1
  store i32 %37, ptr %31, align 8, !tbaa !12
  %38 = icmp eq i32 %37, 0
  br i1 %38, label %39, label %Py_DECREF.exit

39:                                               ; preds = %36
  call void @_Py_Dealloc(ptr noundef nonnull %31) #16
  br label %Py_DECREF.exit

40:                                               ; preds = %real_to_complex.exit
  %.not.i29 = icmp eq ptr %.val, @PyFloat_Type
  br i1 %.not.i29, label %PyObject_TypeCheck.exit30.thread, label %PyObject_TypeCheck.exit30

PyObject_TypeCheck.exit30:                        ; preds = %40
  %41 = call i32 @PyType_IsSubtype(ptr noundef %.val, ptr noundef nonnull @PyFloat_Type) #16
  %.not = icmp eq i32 %41, 0
  br i1 %.not, label %49, label %PyObject_TypeCheck.exit30.thread

PyObject_TypeCheck.exit30.thread:                 ; preds = %40, %PyObject_TypeCheck.exit30
  %42 = load double, ptr %6, align 8, !tbaa !38
  %43 = call double @PyFloat_AsDouble(ptr noundef nonnull %1) #16
  %44 = fcmp oeq double %42, %43
  %45 = getelementptr inbounds nuw i8, ptr %6, i64 8
  %46 = load double, ptr %45, align 8
  %47 = fcmp oeq double %46, 0.000000e+00
  %48 = select i1 %44, i1 %47, i1 false
  br label %67

49:                                               ; preds = %PyObject_TypeCheck.exit30
  %.val25 = load ptr, ptr %22, align 8, !tbaa !8
  %.not.i31 = icmp eq ptr %.val25, @PyComplex_Type
  br i1 %.not.i31, label %PyObject_TypeCheck.exit32.thread.thread, label %PyObject_TypeCheck.exit32

PyObject_TypeCheck.exit32.thread.thread:          ; preds = %49
  call void @llvm.lifetime.start.p0(i64 16, ptr nonnull %7) #16
  br label %PyObject_TypeCheck.exit34.thread

PyObject_TypeCheck.exit32:                        ; preds = %49
  %50 = call i32 @PyType_IsSubtype(ptr noundef %.val25, ptr noundef nonnull @PyComplex_Type) #16
  %.not45 = icmp eq i32 %50, 0
  br i1 %.not45, label %Py_DECREF.exit, label %PyObject_TypeCheck.exit32.thread

PyObject_TypeCheck.exit32.thread:                 ; preds = %PyObject_TypeCheck.exit32
  %.val24.pre = load ptr, ptr %22, align 8, !tbaa !8
  call void @llvm.lifetime.start.p0(i64 16, ptr nonnull %7) #16
  %.not.i33 = icmp eq ptr %.val24.pre, @PyComplex_Type
  br i1 %.not.i33, label %PyObject_TypeCheck.exit34.thread, label %PyObject_TypeCheck.exit34

PyObject_TypeCheck.exit34:                        ; preds = %PyObject_TypeCheck.exit32.thread
  %51 = call i32 @PyType_IsSubtype(ptr noundef %.val24.pre, ptr noundef nonnull @PyComplex_Type) #16
  %.not46 = icmp eq i32 %51, 0
  br i1 %.not46, label %53, label %PyObject_TypeCheck.exit34.thread

PyObject_TypeCheck.exit34.thread:                 ; preds = %PyObject_TypeCheck.exit32.thread.thread, %PyObject_TypeCheck.exit32.thread, %PyObject_TypeCheck.exit34
  %52 = getelementptr inbounds nuw i8, ptr %1, i64 16
  call void @llvm.memcpy.p0.p0.i64(ptr noundef nonnull align 8 dereferenceable(16) %7, ptr noundef nonnull align 8 dereferenceable(16) %52, i64 16, i1 false), !tbaa.struct !34
  br label %.thread

53:                                               ; preds = %PyObject_TypeCheck.exit34
  %54 = call fastcc i32 @real_to_complex(ptr noundef %5, ptr noundef %7)
  %55 = icmp slt i32 %54, 0
  br i1 %55, label %65, label %.thread

.thread:                                          ; preds = %PyObject_TypeCheck.exit34.thread, %53
  %56 = load double, ptr %6, align 8, !tbaa !38
  %57 = load double, ptr %7, align 8, !tbaa !38
  %58 = fcmp oeq double %56, %57
  %59 = getelementptr inbounds nuw i8, ptr %6, i64 8
  %60 = load double, ptr %59, align 8
  %61 = getelementptr inbounds nuw i8, ptr %7, i64 8
  %62 = load double, ptr %61, align 8
  %63 = fcmp oeq double %60, %62
  %64 = select i1 %58, i1 %63, i1 false
  call void @llvm.lifetime.end.p0(i64 16, ptr nonnull %7) #16
  br label %67

65:                                               ; preds = %53
  %66 = load ptr, ptr %5, align 8, !tbaa !32
  call void @llvm.lifetime.end.p0(i64 16, ptr nonnull %7) #16
  br label %Py_DECREF.exit

67:                                               ; preds = %.thread, %PyObject_TypeCheck.exit30.thread
  %.014.shrunk = phi i1 [ %48, %PyObject_TypeCheck.exit30.thread ], [ %64, %.thread ]
  %68 = icmp ne i32 %2, 2
  %69 = xor i1 %68, %.014.shrunk
  br i1 %69, label %.split17, label %.split

.split17:                                         ; preds = %._crit_edge, %67
  %70 = load i32, ptr @_Py_TrueStruct, align 8, !tbaa !12
  %71 = icmp slt i32 %70, 0
  br i1 %71, label %Py_DECREF.exit, label %72

72:                                               ; preds = %.split17
  %73 = add nuw i32 %70, 1
  store i32 %73, ptr @_Py_TrueStruct, align 8, !tbaa !12
  br label %Py_DECREF.exit

.split:                                           ; preds = %._crit_edge, %67
  %74 = load i32, ptr @_Py_FalseStruct, align 8, !tbaa !12
  %75 = icmp slt i32 %74, 0
  br i1 %75, label %Py_DECREF.exit, label %76

76:                                               ; preds = %.split
  %77 = add nuw i32 %74, 1
  store i32 %77, ptr @_Py_FalseStruct, align 8, !tbaa !12
  br label %Py_DECREF.exit

Py_DECREF.exit:                                   ; preds = %76, %.split, %72, %.split17, %65, %39, %36, %33, %3, %PyObject_TypeCheck.exit32, %29, %20
  %.0 = phi ptr [ %66, %65 ], [ %21, %20 ], [ null, %29 ], [ @_Py_NotImplementedStruct, %PyObject_TypeCheck.exit32 ], [ @_Py_NotImplementedStruct, %3 ], [ %34, %33 ], [ %34, %36 ], [ %34, %39 ], [ @_Py_TrueStruct, %.split17 ], [ @_Py_TrueStruct, %72 ], [ @_Py_FalseStruct, %.split ], [ @_Py_FalseStruct, %76 ]
  call void @llvm.lifetime.end.p0(i64 16, ptr nonnull %6) #16
  ret ptr %.0
}